; Function Attrs: mustprogress uwtable
define dso_local noundef ptr @_ZN4Luau7Fixture16requireTypeAliasERKNSt7__cxx1112basic_stringIcSt11char_traitsIcESaIcEEE(ptr noundef nonnull align 8 dereferenceable(2232) %0, ptr noundef nonnull align 8 dereferenceable(32) %1) local_unnamed_addr #6 align 2 personality ptr @__gxx_personality_v0 {
  %3 = alloca %"class.std::optional.448", align 8
  %4 = alloca %"struct.doctest::detail::ResultBuilder", align 8
  %5 = alloca %"class.doctest::String", align 8
  %6 = alloca %"struct.doctest::detail::Result", align 8
  %7 = alloca %"struct.doctest::detail::Expression_lhs.529", align 8
  %8 = alloca %"struct.doctest::detail::ExpressionDecomposer", align 4
  %9 = tail call { ptr, i8 } @_ZN4Luau7Fixture10lookupTypeERKNSt7__cxx1112basic_stringIcSt11char_traitsIcESaIcEEE(ptr noundef nonnull align 8 dereferenceable(2232) %0, ptr noundef nonnull align 8 dereferenceable(32) %1)
  %10 = extractvalue { ptr, i8 } %9, 0
  store ptr %10, ptr %3, align 8
  %11 = getelementptr inbounds nuw i8, ptr %3, i64 8
  %12 = extractvalue { ptr, i8 } %9, 1
  store i8 %12, ptr %11, align 8
  call void @_ZN7doctest6StringC1EPKc(ptr noundef nonnull align 8 dereferenceable(24) %5, ptr noundef nonnull @.str)
  invoke void @_ZN7doctest6detail13ResultBuilderC1ENS_10assertType4EnumEPKciS5_S5_RKNS_6StringE(ptr noundef nonnull align 8 dereferenceable(144) %4, i32 noundef 12, ptr noundef nonnull @.str.61, i32 noundef 442, ptr noundef nonnull @.str.72, ptr noundef nonnull @.str, ptr noundef nonnull align 8 dereferenceable(24) %5)
          to label %13 unwind label %20

13:                                               ; preds = %2
  call void @_ZN7doctest6StringD1Ev(ptr noundef nonnull align 8 dereferenceable(24) %5) #27
  invoke void @_ZN7doctest6detail20ExpressionDecomposerC1ENS_10assertType4EnumE(ptr noundef nonnull align 4 dereferenceable(4) %8, i32 noundef 12)
          to label %14 unwind label %22

14:                                               ; preds = %13
  %15 = load i32, ptr %8, align 4
  store ptr %3, ptr %7, align 8
  %16 = getelementptr inbounds nuw i8, ptr %7, i64 8
  store i32 %15, ptr %16, align 8
  invoke void @_ZN7doctest6detail14Expression_lhsIRSt8optionalIPKN4Luau4TypeEEEcvNS0_6ResultEEv(ptr dead_on_unwind nonnull writable sret(%"struct.doctest::detail::Result") align 8 %6, ptr noundef nonnull align 8 dereferenceable(12) %7)
          to label %17 unwind label %22

17:                                               ; preds = %14
  invoke void @_ZN7doctest6detail13ResultBuilder9setResultERKNS0_6ResultE(ptr noundef nonnull align 8 dereferenceable(144) %4, ptr noundef nonnull align 8 dereferenceable(32) %6)
          to label %18 unwind label %24

18:                                               ; preds = %17
  %19 = getelementptr inbounds nuw i8, ptr %6, i64 8
  call void @_ZN7doctest6StringD1Ev(ptr noundef nonnull align 8 dereferenceable(24) %19) #27
  br label %30

20:                                               ; preds = %2
  %21 = landingpad { ptr, i32 }
          cleanup
  call void @_ZN7doctest6StringD1Ev(ptr noundef nonnull align 8 dereferenceable(24) %5) #27
  br label %46

22:                                               ; preds = %14, %13
  %23 = landingpad { ptr, i32 }
          catch ptr null
  br label %27

24:                                               ; preds = %17
  %25 = landingpad { ptr, i32 }
          catch ptr null
  %26 = getelementptr inbounds nuw i8, ptr %6, i64 8
  call void @_ZN7doctest6StringD1Ev(ptr noundef nonnull align 8 dereferenceable(24) %26) #27
  br label %27

27:                                               ; preds = %24, %22
  %.pn = phi { ptr, i32 } [ %25, %24 ], [ %23, %22 ]
  %.15 = extractvalue { ptr, i32 } %.pn, 0
  %28 = call ptr @__cxa_begin_catch(ptr %.15) #27
  invoke void @_ZN7doctest6detail13ResultBuilder18translateExceptionEv(ptr noundef nonnull align 8 dereferenceable(144) %4)
          to label %29 unwind label %34

29:                                               ; preds = %27
  invoke void @__cxa_end_catch()
          to label %30 unwind label %36

30:                                               ; preds = %29, %18
  %31 = invoke noundef zeroext i1 @_ZN7doctest6detail13ResultBuilder3logEv(ptr noundef nonnull align 8 dereferenceable(144) %4)
          to label %32 unwind label %36

32:                                               ; preds = %30
  br i1 %31, label %33, label %38

33:                                               ; preds = %32
  call void asm sideeffect "int $$3\0A", "~{dirflag},~{fpsr},~{flags}"() #27, !srcloc !88
  br label %38

34:                                               ; preds = %27
  %35 = landingpad { ptr, i32 }
          cleanup
  invoke void @__cxa_end_catch()
          to label %45 unwind label %47

36:                                               ; preds = %38, %30, %29
  %37 = landingpad { ptr, i32 }
          cleanup
  br label %45

38:                                               ; preds = %33, %32
  invoke void @_ZNK7doctest6detail13ResultBuilder5reactEv(ptr noundef nonnull align 8 dereferenceable(144) %4)
          to label %39 unwind label %36

39:                                               ; preds = %38
  %40 = getelementptr inbounds nuw i8, ptr %4, i64 112
  call void @_ZN7doctest6StringD1Ev(ptr noundef nonnull align 8 dereferenceable(25) %40) #27
  %41 = getelementptr inbounds nuw i8, ptr %4, i64 72
  call void @_ZN7doctest6StringD1Ev(ptr noundef nonnull align 8 dereferenceable(24) %41) #27
  %42 = getelementptr inbounds nuw i8, ptr %4, i64 48
  call void @_ZN7doctest6StringD1Ev(ptr noundef nonnull align 8 dereferenceable(24) %42) #27
  %43 = load ptr, ptr %3, align 8
  %44 = call noundef ptr @_ZN4Luau6followEPKNS_4TypeE(ptr noundef %43)
  ret ptr %44

45:                                               ; preds = %34, %36
  %.pn6 = phi { ptr, i32 } [ %37, %36 ], [ %35, %34 ]
  call void @_ZN7doctest6detail13ResultBuilderD2Ev(ptr noundef nonnull align 8 dereferenceable(144) %4) #27
  br label %46

46:                                               ; preds = %45, %20
  %.pn6.pn = phi { ptr, i32 } [ %.pn6, %45 ], [ %21, %20 ]
  resume { ptr, i32 } %.pn6.pn

47:                                               ; preds = %34
  %48 = landingpad { ptr, i32 }
          catch ptr null
  %49 = extractvalue { ptr, i32 } %48, 0
  call void @__clang_call_terminate(ptr %49) #25
  unreachable
}